target datalayout = "e-m:e-p270:32:32-p271:32:32-p272:64:64-i64:64-i128:128-f80:128-n8:16:32:64-S128"
target triple = "x86_64-pc-linux-gnu"

%struct.btLCP = type { i32, i32, i32, i32, i32, ptr, ptr, ptr, ptr, ptr, ptr, ptr, ptr, ptr, ptr, ptr, ptr, ptr, ptr, ptr }

; Function Attrs: inlinehint mustprogress nounwind uwtable
define linkonce_odr dso_local noundef float @_Z10btLargeDotPKfS0_i(ptr noundef %0, ptr noundef %1, i32 noundef %2) #5 comdat {
  %4 = alloca ptr, align 8
  %5 = alloca ptr, align 8
  %6 = alloca i32, align 4
  %7 = alloca float, align 4
  %8 = alloca float, align 4
  %9 = alloca float, align 4
  %10 = alloca float, align 4
  %11 = alloca float, align 4
  %12 = alloca float, align 4
  %13 = alloca float, align 4
  store ptr %0, ptr %4, align 8, !tbaa !12
  store ptr %1, ptr %5, align 8, !tbaa !12
  store i32 %2, ptr %6, align 4, !tbaa !9
  call void @llvm.lifetime.start.p0(i64 4, ptr %7) #9
  call void @llvm.lifetime.start.p0(i64 4, ptr %8) #9
  call void @llvm.lifetime.start.p0(i64 4, ptr %9) #9
  call void @llvm.lifetime.start.p0(i64 4, ptr %10) #9
  call void @llvm.lifetime.start.p0(i64 4, ptr %11) #9
  call void @llvm.lifetime.start.p0(i64 4, ptr %12) #9
  call void @llvm.lifetime.start.p0(i64 4, ptr %13) #9
  store float 0.000000e+00, ptr %13, align 4, !tbaa !14
  %14 = load i32, ptr %6, align 4, !tbaa !9
  %15 = sub nsw i32 %14, 2
  store i32 %15, ptr %6, align 4, !tbaa !9
  br label %16

16:                                               ; preds = %19, %3
  %17 = load i32, ptr %6, align 4, !tbaa !9
  %18 = icmp sge i32 %17, 0
  br i1 %18, label %19, label %50

19:                                               ; preds = %16
  %20 = load ptr, ptr %4, align 8, !tbaa !12
  %21 = getelementptr inbounds float, ptr %20, i64 0
  %22 = load float, ptr %21, align 4, !tbaa !14
  store float %22, ptr %7, align 4, !tbaa !14
  %23 = load ptr, ptr %5, align 8, !tbaa !12
  %24 = getelementptr inbounds float, ptr %23, i64 0
  %25 = load float, ptr %24, align 4, !tbaa !14
  store float %25, ptr %8, align 4, !tbaa !14
  %26 = load float, ptr %7, align 4, !tbaa !14
  %27 = load float, ptr %8, align 4, !tbaa !14
  %28 = fmul float %26, %27
  store float %28, ptr %9, align 4, !tbaa !14
  %29 = load ptr, ptr %4, align 8, !tbaa !12
  %30 = getelementptr inbounds float, ptr %29, i64 1
  %31 = load float, ptr %30, align 4, !tbaa !14
  store float %31, ptr %10, align 4, !tbaa !14
  %32 = load ptr, ptr %5, align 8, !tbaa !12
  %33 = getelementptr inbounds float, ptr %32, i64 1
  %34 = load float, ptr %33, align 4, !tbaa !14
  store float %34, ptr %11, align 4, !tbaa !14
  %35 = load float, ptr %10, align 4, !tbaa !14
  %36 = load float, ptr %11, align 4, !tbaa !14
  %37 = fmul float %35, %36
  store float %37, ptr %12, align 4, !tbaa !14
  %38 = load float, ptr %9, align 4, !tbaa !14
  %39 = load float, ptr %13, align 4, !tbaa !14
  %40 = fadd float %39, %38
  store float %40, ptr %13, align 4, !tbaa !14
  %41 = load float, ptr %12, align 4, !tbaa !14
  %42 = load float, ptr %13, align 4, !tbaa !14
  %43 = fadd float %42, %41
  store float %43, ptr %13, align 4, !tbaa !14
  %44 = load ptr, ptr %4, align 8, !tbaa !12
  %45 = getelementptr inbounds float, ptr %44, i64 2
  store ptr %45, ptr %4, align 8, !tbaa !12
  %46 = load ptr, ptr %5, align 8, !tbaa !12
  %47 = getelementptr inbounds float, ptr %46, i64 2
  store ptr %47, ptr %5, align 8, !tbaa !12
  %48 = load i32, ptr %6, align 4, !tbaa !9
  %49 = sub nsw i32 %48, 2
  store i32 %49, ptr %6, align 4, !tbaa !9
  br label %16, !llvm.loop !84

50:                                               ; preds = %16
  %51 = load i32, ptr %6, align 4, !tbaa !9
  %52 = add nsw i32 %51, 2
  store i32 %52, ptr %6, align 4, !tbaa !9
  br label %53

53:                                               ; preds = %56, %50
  %54 = load i32, ptr %6, align 4, !tbaa !9
  %55 = icmp sgt i32 %54, 0
  br i1 %55, label %56, label %69

56:                                               ; preds = %53
  %57 = load ptr, ptr %4, align 8, !tbaa !12
  %58 = load float, ptr %57, align 4, !tbaa !14
  %59 = load ptr, ptr %5, align 8, !tbaa !12
  %60 = load float, ptr %59, align 4, !tbaa !14
  %61 = load float, ptr %13, align 4, !tbaa !14
  %62 = call float @llvm.fmuladd.f32(float %58, float %60, float %61)
  store float %62, ptr %13, align 4, !tbaa !14
  %63 = load ptr, ptr %4, align 8, !tbaa !12
  %64 = getelementptr inbounds nuw float, ptr %63, i32 1
  store ptr %64, ptr %4, align 8, !tbaa !12
  %65 = load ptr, ptr %5, align 8, !tbaa !12
  %66 = getelementptr inbounds nuw float, ptr %65, i32 1
  store ptr %66, ptr %5, align 8, !tbaa !12
  %67 = load i32, ptr %6, align 4, !tbaa !9
  %68 = add nsw i32 %67, -1
  store i32 %68, ptr %6, align 4, !tbaa !9
  br label %53, !llvm.loop !85

69:                                               ; preds = %53
  %70 = load float, ptr %13, align 4, !tbaa !14
  call void @llvm.lifetime.end.p0(i64 4, ptr %13) #9
  call void @llvm.lifetime.end.p0(i64 4, ptr %12) #9
  call void @llvm.lifetime.end.p0(i64 4, ptr %11) #9
  call void @llvm.lifetime.end.p0(i64 4, ptr %10) #9
  call void @llvm.lifetime.end.p0(i64 4, ptr %9) #9
  call void @llvm.lifetime.end.p0(i64 4, ptr %8) #9
  call void @llvm.lifetime.end.p0(i64 4, ptr %7) #9
  ret float %70
}

; Function Attrs: mustprogress uwtable
define dso_local void @_ZN5btLCP15transfer_i_to_CEi(ptr noundef nonnull align 8 dereferenceable(144) %0, i32 noundef %1) #2 align 2 {
  %3 = alloca ptr, align 8
  %4 = alloca i32, align 4
  %5 = alloca i32, align 4
  %6 = alloca ptr, align 8
  %7 = alloca ptr, align 8
  %8 = alloca i32, align 4
  %9 = alloca i32, align 4
  %10 = alloca i32, align 4
  store ptr %0, ptr %3, align 8, !tbaa !41
  store i32 %1, ptr %4, align 4, !tbaa !9
  %11 = load ptr, ptr %3, align 8
  %12 = getelementptr inbounds nuw %struct.btLCP, ptr %11, i32 0, i32 3
  %13 = load i32, ptr %12, align 4, !tbaa !53
  %14 = icmp sgt i32 %13, 0
  br i1 %14, label %15, label %72

15:                                               ; preds = %2
  call void @llvm.lifetime.start.p0(i64 4, ptr %5) #9
  %16 = getelementptr inbounds nuw %struct.btLCP, ptr %11, i32 0, i32 3
  %17 = load i32, ptr %16, align 4, !tbaa !53
  store i32 %17, ptr %5, align 4, !tbaa !9
  call void @llvm.lifetime.start.p0(i64 8, ptr %6) #9
  %18 = getelementptr inbounds nuw %struct.btLCP, ptr %11, i32 0, i32 11
  %19 = load ptr, ptr %18, align 8, !tbaa !61
  %20 = load i32, ptr %5, align 4, !tbaa !9
  %21 = getelementptr inbounds nuw %struct.btLCP, ptr %11, i32 0, i32 1
  %22 = load i32, ptr %21, align 4, !tbaa !51
  %23 = mul nsw i32 %20, %22
  %24 = sext i32 %23 to i64
  %25 = getelementptr inbounds float, ptr %19, i64 %24
  store ptr %25, ptr %6, align 8, !tbaa !12
  call void @llvm.lifetime.start.p0(i64 8, ptr %7) #9
  %26 = getelementptr inbounds nuw %struct.btLCP, ptr %11, i32 0, i32 14
  %27 = load ptr, ptr %26, align 8, !tbaa !64
  store ptr %27, ptr %7, align 8, !tbaa !12
  call void @llvm.lifetime.start.p0(i64 4, ptr %8) #9
  store i32 0, ptr %8, align 4, !tbaa !9
  br label %28

28:                                               ; preds = %43, %15
  %29 = load i32, ptr %8, align 4, !tbaa !9
  %30 = load i32, ptr %5, align 4, !tbaa !9
  %31 = icmp slt i32 %29, %30
  br i1 %31, label %33, label %32

32:                                               ; preds = %28
  call void @llvm.lifetime.end.p0(i64 4, ptr %8) #9
  br label %46

33:                                               ; preds = %28
  %34 = load ptr, ptr %7, align 8, !tbaa !12
  %35 = load i32, ptr %8, align 4, !tbaa !9
  %36 = sext i32 %35 to i64
  %37 = getelementptr inbounds float, ptr %34, i64 %36
  %38 = load float, ptr %37, align 4, !tbaa !14
  %39 = load ptr, ptr %6, align 8, !tbaa !12
  %40 = load i32, ptr %8, align 4, !tbaa !9
  %41 = sext i32 %40 to i64
  %42 = getelementptr inbounds float, ptr %39, i64 %41
  store float %38, ptr %42, align 4, !tbaa !14
  br label %43

43:                                               ; preds = %33
  %44 = load i32, ptr %8, align 4, !tbaa !9
  %45 = add nsw i32 %44, 1
  store i32 %45, ptr %8, align 4, !tbaa !9
  br label %28, !llvm.loop !83

46:                                               ; preds = %32
  call void @llvm.lifetime.end.p0(i64 8, ptr %7) #9
  call void @llvm.lifetime.end.p0(i64 8, ptr %6) #9
  call void @llvm.lifetime.end.p0(i64 4, ptr %5) #9
  call void @llvm.lifetime.start.p0(i64 4, ptr %9) #9
  %47 = getelementptr inbounds nuw %struct.btLCP, ptr %11, i32 0, i32 3
  %48 = load i32, ptr %47, align 4, !tbaa !53
  store i32 %48, ptr %9, align 4, !tbaa !9
  %49 = getelementptr inbounds nuw %struct.btLCP, ptr %11, i32 0, i32 5
  %50 = load ptr, ptr %49, align 8, !tbaa !55
  %51 = load i32, ptr %4, align 4, !tbaa !9
  %52 = sext i32 %51 to i64
  %53 = getelementptr inbounds ptr, ptr %50, i64 %52
  %54 = load ptr, ptr %53, align 8, !tbaa !12
  %55 = load i32, ptr %4, align 4, !tbaa !9
  %56 = sext i32 %55 to i64
  %57 = getelementptr inbounds float, ptr %54, i64 %56
  %58 = load float, ptr %57, align 4, !tbaa !14
  %59 = getelementptr inbounds nuw %struct.btLCP, ptr %11, i32 0, i32 14
  %60 = load ptr, ptr %59, align 8, !tbaa !64
  %61 = getelementptr inbounds nuw %struct.btLCP, ptr %11, i32 0, i32 13
  %62 = load ptr, ptr %61, align 8, !tbaa !63
  %63 = load i32, ptr %9, align 4, !tbaa !9
  %64 = call noundef float @_Z10btLargeDotPKfS0_i(ptr noundef %60, ptr noundef %62, i32 noundef %63)
  %65 = fsub float %58, %64
  %66 = fdiv float 1.000000e+00, %65
  %67 = getelementptr inbounds nuw %struct.btLCP, ptr %11, i32 0, i32 12
  %68 = load ptr, ptr %67, align 8, !tbaa !62
  %69 = load i32, ptr %9, align 4, !tbaa !9
  %70 = sext i32 %69 to i64
  %71 = getelementptr inbounds float, ptr %68, i64 %70
  store float %66, ptr %71, align 4, !tbaa !14
  call void @llvm.lifetime.end.p0(i64 4, ptr %9) #9
  br label %87

72:                                               ; preds = %2
  %73 = getelementptr inbounds nuw %struct.btLCP, ptr %11, i32 0, i32 5
  %74 = load ptr, ptr %73, align 8, !tbaa !55
  %75 = load i32, ptr %4, align 4, !tbaa !9
  %76 = sext i32 %75 to i64
  %77 = getelementptr inbounds ptr, ptr %74, i64 %76
  %78 = load ptr, ptr %77, align 8, !tbaa !12
  %79 = load i32, ptr %4, align 4, !tbaa !9
  %80 = sext i32 %79 to i64
  %81 = getelementptr inbounds float, ptr %78, i64 %80
  %82 = load float, ptr %81, align 4, !tbaa !14
  %83 = fdiv float 1.000000e+00, %82
  %84 = getelementptr inbounds nuw %struct.btLCP, ptr %11, i32 0, i32 12
  %85 = load ptr, ptr %84, align 8, !tbaa !62
  %86 = getelementptr inbounds float, ptr %85, i64 0
  store float %83, ptr %86, align 4, !tbaa !14
  br label %87

87:                                               ; preds = %72, %46
  %88 = getelementptr inbounds nuw %struct.btLCP, ptr %11, i32 0, i32 5
  %89 = load ptr, ptr %88, align 8, !tbaa !55
  %90 = getelementptr inbounds nuw %struct.btLCP, ptr %11, i32 0, i32 6
  %91 = load ptr, ptr %90, align 8, !tbaa !56
  %92 = getelementptr inbounds nuw %struct.btLCP, ptr %11, i32 0, i32 7
  %93 = load ptr, ptr %92, align 8, !tbaa !57
  %94 = getelementptr inbounds nuw %struct.btLCP, ptr %11, i32 0, i32 8
  %95 = load ptr, ptr %94, align 8, !tbaa !58
  %96 = getelementptr inbounds nuw %struct.btLCP, ptr %11, i32 0, i32 9
  %97 = load ptr, ptr %96, align 8, !tbaa !59
  %98 = getelementptr inbounds nuw %struct.btLCP, ptr %11, i32 0, i32 10
  %99 = load ptr, ptr %98, align 8, !tbaa !60
  %100 = getelementptr inbounds nuw %struct.btLCP, ptr %11, i32 0, i32 18
  %101 = load ptr, ptr %100, align 8, !tbaa !68
  %102 = getelementptr inbounds nuw %struct.btLCP, ptr %11, i32 0, i32 16
  %103 = load ptr, ptr %102, align 8, !tbaa !66
  %104 = getelementptr inbounds nuw %struct.btLCP, ptr %11, i32 0, i32 17
  %105 = load ptr, ptr %104, align 8, !tbaa !67
  %106 = getelementptr inbounds nuw %struct.btLCP, ptr %11, i32 0, i32 0
  %107 = load i32, ptr %106, align 8, !tbaa !49
  %108 = getelementptr inbounds nuw %struct.btLCP, ptr %11, i32 0, i32 3
  %109 = load i32, ptr %108, align 4, !tbaa !53
  %110 = load i32, ptr %4, align 4, !tbaa !9
  %111 = getelementptr inbounds nuw %struct.btLCP, ptr %11, i32 0, i32 1
  %112 = load i32, ptr %111, align 4, !tbaa !51
  call void @_ZL13btSwapProblemPPfS_S_S_S_S_PiPbS1_iiiii(ptr noundef %89, ptr noundef %91, ptr noundef %93, ptr noundef %95, ptr noundef %97, ptr noundef %99, ptr noundef %101, ptr noundef %103, ptr noundef %105, i32 noundef %107, i32 noundef %109, i32 noundef %110, i32 noundef %112, i32 noundef 1)
  call void @llvm.lifetime.start.p0(i64 4, ptr %10) #9
  %113 = getelementptr inbounds nuw %struct.btLCP, ptr %11, i32 0, i32 3
  %114 = load i32, ptr %113, align 4, !tbaa !53
  store i32 %114, ptr %10, align 4, !tbaa !9
  %115 = load i32, ptr %10, align 4, !tbaa !9
  %116 = getelementptr inbounds nuw %struct.btLCP, ptr %11, i32 0, i32 19
  %117 = load ptr, ptr %116, align 8, !tbaa !69
  %118 = load i32, ptr %10, align 4, !tbaa !9
  %119 = sext i32 %118 to i64
  %120 = getelementptr inbounds i32, ptr %117, i64 %119
  store i32 %115, ptr %120, align 4, !tbaa !9
  %121 = load i32, ptr %10, align 4, !tbaa !9
  %122 = add nsw i32 %121, 1
  %123 = getelementptr inbounds nuw %struct.btLCP, ptr %11, i32 0, i32 3
  store i32 %122, ptr %123, align 4, !tbaa !53
  call void @llvm.lifetime.end.p0(i64 4, ptr %10) #9
  ret void
}