; Function Attrs: mustprogress nofree norecurse nosync nounwind memory(readwrite, inaccessiblemem: none) uwtable
define dso_local void @_ZN5btLCP15transfer_i_to_CEi(ptr noundef nonnull align 8 captures(none) dereferenceable(144) %0, i32 noundef %1) local_unnamed_addr #3 align 2 {
  %3 = getelementptr inbounds nuw i8, ptr %0, i64 12
  %4 = load i32, ptr %3, align 4, !tbaa !41
  %5 = icmp sgt i32 %4, 0
  br i1 %5, label %6, label %55

6:                                                ; preds = %2
  %7 = getelementptr inbounds nuw i8, ptr %0, i64 72
  %8 = load ptr, ptr %7, align 8, !tbaa !49
  %9 = getelementptr inbounds nuw i8, ptr %0, i64 4
  %10 = load i32, ptr %9, align 4, !tbaa !39
  %11 = mul nsw i32 %10, %4
  %12 = sext i32 %11 to i64
  %13 = getelementptr inbounds float, ptr %8, i64 %12
  %14 = getelementptr inbounds nuw i8, ptr %0, i64 96
  %15 = load ptr, ptr %14, align 8, !tbaa !52
  %wide.trip.count = zext nneg i32 %4 to i64
  br label %51

16:                                               ; preds = %51
  %17 = getelementptr inbounds nuw i8, ptr %0, i64 24
  %18 = load ptr, ptr %17, align 8, !tbaa !43
  %19 = sext i32 %1 to i64
  %20 = getelementptr inbounds ptr, ptr %18, i64 %19
  %21 = load ptr, ptr %20, align 8, !tbaa !58
  %22 = getelementptr inbounds float, ptr %21, i64 %19
  %23 = load float, ptr %22, align 4, !tbaa !4
  %24 = getelementptr inbounds nuw i8, ptr %0, i64 88
  %25 = load ptr, ptr %24, align 8, !tbaa !51
  %.02931.i = add nsw i32 %4, -2
  %.not = icmp eq i32 %4, 1
  br i1 %.not, label %.lr.ph43.i, label %.lr.ph.i

.lr.ph.i:                                         ; preds = %16, %.lr.ph.i
  %.02935.i = phi i32 [ %.029.i, %.lr.ph.i ], [ %.02931.i, %16 ]
  %.034.i = phi float [ %35, %.lr.ph.i ], [ 0.000000e+00, %16 ]
  %.02533.i = phi ptr [ %36, %.lr.ph.i ], [ %15, %16 ]
  %.02732.i = phi ptr [ %37, %.lr.ph.i ], [ %25, %16 ]
  %26 = load float, ptr %.02533.i, align 4, !tbaa !4
  %27 = load float, ptr %.02732.i, align 4, !tbaa !4
  %28 = fmul float %26, %27
  %29 = getelementptr inbounds nuw i8, ptr %.02533.i, i64 4
  %30 = load float, ptr %29, align 4, !tbaa !4
  %31 = getelementptr inbounds nuw i8, ptr %.02732.i, i64 4
  %32 = load float, ptr %31, align 4, !tbaa !4
  %33 = fmul float %30, %32
  %34 = fadd float %.034.i, %28
  %35 = fadd float %34, %33
  %36 = getelementptr inbounds nuw i8, ptr %.02533.i, i64 8
  %37 = getelementptr inbounds nuw i8, ptr %.02732.i, i64 8
  %.029.i = add nsw i32 %.02935.i, -2
  %38 = icmp samesign ugt i32 %.02935.i, 1
  br i1 %38, label %.lr.ph.i, label %._crit_edge.i, !llvm.loop !73

._crit_edge.i:                                    ; preds = %.lr.ph.i
  %39 = and i32 %.02931.i, -2
  %40 = add nsw i32 %4, -4
  %41 = sub i32 %40, %39
  %42 = icmp eq i32 %41, -1
  br i1 %42, label %.lr.ph43.i, label %_Z10btLargeDotPKfS0_i.exit

.lr.ph43.i:                                       ; preds = %16, %._crit_edge.i
  %.0.lcssa.i31 = phi float [ %35, %._crit_edge.i ], [ 0.000000e+00, %16 ]
  %.025.lcssa.i30 = phi ptr [ %36, %._crit_edge.i ], [ %15, %16 ]
  %.027.lcssa.i29 = phi ptr [ %37, %._crit_edge.i ], [ %25, %16 ]
  %43 = load float, ptr %.025.lcssa.i30, align 4, !tbaa !4
  %44 = load float, ptr %.027.lcssa.i29, align 4, !tbaa !4
  %45 = tail call float @llvm.fmuladd.f32(float %43, float %44, float %.0.lcssa.i31)
  br label %_Z10btLargeDotPKfS0_i.exit

_Z10btLargeDotPKfS0_i.exit:                       ; preds = %._crit_edge.i, %.lr.ph43.i
  %.1.lcssa.i = phi float [ %45, %.lr.ph43.i ], [ %35, %._crit_edge.i ]
  %46 = fsub float %23, %.1.lcssa.i
  %47 = fdiv float 1.000000e+00, %46
  %48 = getelementptr inbounds nuw i8, ptr %0, i64 80
  %49 = load ptr, ptr %48, align 8, !tbaa !50
  %50 = getelementptr inbounds nuw float, ptr %49, i64 %wide.trip.count
  store float %47, ptr %50, align 4, !tbaa !4
  br label %66

51:                                               ; preds = %6, %51
  %indvars.iv = phi i64 [ 0, %6 ], [ %indvars.iv.next, %51 ]
  %52 = getelementptr inbounds nuw float, ptr %15, i64 %indvars.iv
  %53 = load float, ptr %52, align 4, !tbaa !4
  %54 = getelementptr inbounds nuw float, ptr %13, i64 %indvars.iv
  store float %53, ptr %54, align 4, !tbaa !4
  %indvars.iv.next = add nuw nsw i64 %indvars.iv, 1
  %exitcond.not = icmp eq i64 %indvars.iv.next, %wide.trip.count
  br i1 %exitcond.not, label %16, label %51, !llvm.loop !74

55:                                               ; preds = %2
  %56 = getelementptr inbounds nuw i8, ptr %0, i64 24
  %57 = load ptr, ptr %56, align 8, !tbaa !43
  %58 = sext i32 %1 to i64
  %59 = getelementptr inbounds ptr, ptr %57, i64 %58
  %60 = load ptr, ptr %59, align 8, !tbaa !58
  %61 = getelementptr inbounds float, ptr %60, i64 %58
  %62 = load float, ptr %61, align 4, !tbaa !4
  %63 = fdiv float 1.000000e+00, %62
  %64 = getelementptr inbounds nuw i8, ptr %0, i64 80
  %65 = load ptr, ptr %64, align 8, !tbaa !50
  store float %63, ptr %65, align 4, !tbaa !4
  br label %66

66:                                               ; preds = %55, %_Z10btLargeDotPKfS0_i.exit
  %67 = phi ptr [ %57, %55 ], [ %18, %_Z10btLargeDotPKfS0_i.exit ]
  %68 = getelementptr inbounds nuw i8, ptr %0, i64 32
  %69 = load ptr, ptr %68, align 8, !tbaa !44
  %70 = getelementptr inbounds nuw i8, ptr %0, i64 40
  %71 = load ptr, ptr %70, align 8, !tbaa !45
  %72 = getelementptr inbounds nuw i8, ptr %0, i64 48
  %73 = load ptr, ptr %72, align 8, !tbaa !46
  %74 = getelementptr inbounds nuw i8, ptr %0, i64 56
  %75 = load ptr, ptr %74, align 8, !tbaa !47
  %76 = getelementptr inbounds nuw i8, ptr %0, i64 64
  %77 = load ptr, ptr %76, align 8, !tbaa !48
  %78 = getelementptr inbounds nuw i8, ptr %0, i64 128
  %79 = load ptr, ptr %78, align 8, !tbaa !56
  %80 = getelementptr inbounds nuw i8, ptr %0, i64 112
  %81 = load ptr, ptr %80, align 8, !tbaa !54
  %82 = getelementptr inbounds nuw i8, ptr %0, i64 120
  %83 = load ptr, ptr %82, align 8, !tbaa !55
  %84 = load i32, ptr %0, align 8, !tbaa !31
  tail call fastcc void @_ZL13btSwapProblemPPfS_S_S_S_S_PiPbS1_iiiii(ptr noundef %67, ptr noundef %69, ptr noundef %71, ptr noundef %73, ptr noundef %75, ptr noundef %77, ptr noundef %79, ptr noundef %81, ptr noundef %83, i32 noundef %84, i32 noundef %4, i32 noundef %1, i32 noundef 1)
  %85 = load i32, ptr %3, align 4, !tbaa !41
  %86 = getelementptr inbounds nuw i8, ptr %0, i64 136
  %87 = load ptr, ptr %86, align 8, !tbaa !57
  %88 = sext i32 %85 to i64
  %89 = getelementptr inbounds i32, ptr %87, i64 %88
  store i32 %85, ptr %89, align 4, !tbaa !60
  %90 = add nsw i32 %85, 1
  store i32 %90, ptr %3, align 4, !tbaa !41
  ret void
}